target datalayout = "e-m:e-p270:32:32-p271:32:32-p272:64:64-i64:64-i128:128-f80:128-n8:16:32:64-S128"
target triple = "x86_64-pc-linux-gnu"

%"class.std::shared_ptr" = type { %"class.std::__shared_ptr" }
%"class.std::__shared_ptr" = type { ptr, %"class.std::__shared_count" }
%"class.std::__shared_count" = type { ptr }
%"class.open_spiel::markov_soccer::MarkovSoccerState" = type { %"class.open_spiel::SimMoveState.base", ptr, i32, i32, i32, i32, %"struct.std::array", %"struct.std::array", i32, i32, %"struct.std::array", %"class.std::vector.9" }
%"class.open_spiel::SimMoveState.base" = type { %"class.open_spiel::State.base" }
%"class.open_spiel::State.base" = type <{ ptr, %"class.std::shared_ptr", i32, i32, %"class.std::vector", i32 }>
%"class.std::vector" = type { %"struct.std::_Vector_base" }
%"struct.std::_Vector_base" = type { %"struct.std::_Vector_base<open_spiel::State::PlayerAction, std::allocator<open_spiel::State::PlayerAction>>::_Vector_impl" }
%"struct.std::_Vector_base<open_spiel::State::PlayerAction, std::allocator<open_spiel::State::PlayerAction>>::_Vector_impl" = type { %"struct.std::_Vector_base<open_spiel::State::PlayerAction, std::allocator<open_spiel::State::PlayerAction>>::_Vector_impl_data" }
%"struct.std::_Vector_base<open_spiel::State::PlayerAction, std::allocator<open_spiel::State::PlayerAction>>::_Vector_impl_data" = type { ptr, ptr, ptr }
%"struct.std::array" = type { [2 x i32] }
%"class.std::vector.9" = type { %"struct.std::_Vector_base.10" }
%"struct.std::_Vector_base.10" = type { %"struct.std::_Vector_base<char, std::allocator<char>>::_Vector_impl" }
%"struct.std::_Vector_base<char, std::allocator<char>>::_Vector_impl" = type { %"struct.std::_Vector_base<char, std::allocator<char>>::_Vector_impl_data" }
%"struct.std::_Vector_base<char, std::allocator<char>>::_Vector_impl_data" = type { ptr, ptr, ptr }
%"struct.open_spiel::markov_soccer::Grid" = type { i32, i32, %"struct.std::pair.11", %"struct.std::pair.11", %"class.std::vector.13" }
%"struct.std::pair.11" = type { i32, i32 }
%"class.std::vector.13" = type { %"struct.std::_Vector_base.14" }
%"struct.std::_Vector_base.14" = type { %"struct.std::_Vector_base<std::pair<int, int>, std::allocator<std::pair<int, int>>>::_Vector_impl" }
%"struct.std::_Vector_base<std::pair<int, int>, std::allocator<std::pair<int, int>>>::_Vector_impl" = type { %"struct.std::_Vector_base<std::pair<int, int>, std::allocator<std::pair<int, int>>>::_Vector_impl_data" }
%"struct.std::_Vector_base<std::pair<int, int>, std::allocator<std::pair<int, int>>>::_Vector_impl_data" = type { ptr, ptr, ptr }
%"class.__gnu_cxx::__normal_iterator.96" = type { ptr }

; Function Attrs: mustprogress nounwind uwtable
define linkonce_odr void @_ZNSt12_Destroy_auxILb1EE9__destroyIPcEEvT_S3_(ptr noundef %0, ptr noundef %1) #5 comdat align 2 {
  %3 = alloca ptr, align 8
  %4 = alloca ptr, align 8
  store ptr %0, ptr %3, align 8
  store ptr %1, ptr %4, align 8
  ret void
}

; Function Attrs: mustprogress uwtable
define linkonce_odr void @_ZSt8_DestroyIPcEvT_S1_(ptr noundef %0, ptr noundef %1) #4 comdat {
  %3 = alloca ptr, align 8
  %4 = alloca ptr, align 8
  store ptr %0, ptr %3, align 8
  store ptr %1, ptr %4, align 8
  %5 = load ptr, ptr %3, align 8
  %6 = load ptr, ptr %4, align 8
  call void @_ZNSt12_Destroy_auxILb1EE9__destroyIPcEEvT_S3_(ptr noundef %5, ptr noundef %6)
  ret void
}

; Function Attrs: mustprogress nounwind uwtable
define linkonce_odr noundef nonnull align 4 dereferenceable(4) ptr @_ZNSt14__array_traitsIiLm2EE6_S_refERA2_Kim(ptr noundef nonnull align 4 dereferenceable(8) %0, i64 noundef %1) #5 comdat align 2 {
  %3 = alloca ptr, align 8
  %4 = alloca i64, align 8
  store ptr %0, ptr %3, align 8
  store i64 %1, ptr %4, align 8
  %5 = load ptr, ptr %3, align 8
  %6 = load i64, ptr %4, align 8
  %7 = getelementptr inbounds [2 x i32], ptr %5, i64 0, i64 %6
  ret ptr %7
}

; Function Attrs: noreturn nounwind uwtable
define linkonce_odr hidden void @__clang_call_terminate(ptr noundef %0) #11 comdat {
  %2 = call ptr @__cxa_begin_catch(ptr %0) #3
  call void @_ZSt9terminatev() #17
  unreachable
}

; Function Attrs: mustprogress uwtable
define linkonce_odr void @_ZSt8_DestroyIPccEvT_S1_RSaIT0_E(ptr noundef %0, ptr noundef %1, ptr noundef nonnull align 1 dereferenceable(1) %2) #4 comdat {
  %4 = alloca ptr, align 8
  %5 = alloca ptr, align 8
  %6 = alloca ptr, align 8
  store ptr %0, ptr %4, align 8
  store ptr %1, ptr %5, align 8
  store ptr %2, ptr %6, align 8
  %7 = load ptr, ptr %4, align 8
  %8 = load ptr, ptr %5, align 8
  call void @_ZSt8_DestroyIPcEvT_S1_(ptr noundef %7, ptr noundef %8)
  ret void
}

; Function Attrs: mustprogress nounwind uwtable
define linkonce_odr noundef nonnull align 1 dereferenceable(1) ptr @_ZNSt12_Vector_baseIcSaIcEE19_M_get_Tp_allocatorEv(ptr noundef nonnull align 8 dereferenceable(24) %0) #5 comdat align 2 {
  %2 = alloca ptr, align 8
  store ptr %0, ptr %2, align 8
  %3 = load ptr, ptr %2, align 8
  %4 = getelementptr inbounds nuw %"struct.std::_Vector_base.10", ptr %3, i32 0, i32 0
  ret ptr %4
}

; Function Attrs: mustprogress nounwind uwtable
define linkonce_odr void @_ZN9__gnu_cxx17__normal_iteratorIPcSt6vectorIcSaIcEEEC2ERKS1_(ptr noundef nonnull align 8 dereferenceable(8) %0, ptr noundef nonnull align 8 dereferenceable(8) %1) unnamed_addr #5 comdat align 2 {
  %3 = alloca ptr, align 8
  %4 = alloca ptr, align 8
  store ptr %0, ptr %3, align 8
  store ptr %1, ptr %4, align 8
  %5 = load ptr, ptr %3, align 8
  %6 = getelementptr inbounds nuw %"class.__gnu_cxx::__normal_iterator.96", ptr %5, i32 0, i32 0
  %7 = load ptr, ptr %4, align 8
  %8 = load ptr, ptr %7, align 8
  store ptr %8, ptr %6, align 8
  ret void
}

; Function Attrs: mustprogress nounwind uwtable
define linkonce_odr noundef nonnull align 4 dereferenceable(4) ptr @_ZNSt5arrayIiLm2EEixEm(ptr noundef nonnull align 4 dereferenceable(8) %0, i64 noundef %1) #5 comdat align 2 {
  %3 = alloca ptr, align 8
  %4 = alloca i64, align 8
  store ptr %0, ptr %3, align 8
  store i64 %1, ptr %4, align 8
  %5 = load ptr, ptr %3, align 8
  %6 = getelementptr inbounds nuw %"struct.std::array", ptr %5, i32 0, i32 0
  %7 = load i64, ptr %4, align 8
  %8 = call noundef nonnull align 4 dereferenceable(4) ptr @_ZNSt14__array_traitsIiLm2EE6_S_refERA2_Kim(ptr noundef nonnull align 4 dereferenceable(8) %6, i64 noundef %7) #3
  ret ptr %8
}

; Function Attrs: mustprogress nounwind uwtable
define linkonce_odr noundef nonnull align 1 dereferenceable(1) ptr @_ZNSt6vectorIcSaIcEEixEm(ptr noundef nonnull align 8 dereferenceable(24) %0, i64 noundef %1) #5 comdat align 2 {
  %3 = alloca ptr, align 8
  %4 = alloca i64, align 8
  store ptr %0, ptr %3, align 8
  store i64 %1, ptr %4, align 8
  %5 = load ptr, ptr %3, align 8
  %6 = getelementptr inbounds nuw %"struct.std::_Vector_base.10", ptr %5, i32 0, i32 0
  %7 = getelementptr inbounds nuw %"struct.std::_Vector_base<char, std::allocator<char>>::_Vector_impl_data", ptr %6, i32 0, i32 0
  %8 = load ptr, ptr %7, align 8
  %9 = load i64, ptr %4, align 8
  %10 = getelementptr inbounds i8, ptr %8, i64 %9
  ret ptr %10
}

; Function Attrs: mustprogress nounwind uwtable
define linkonce_odr void @_ZNSt6vectorIcSaIcEE15_M_erase_at_endEPc(ptr noundef nonnull align 8 dereferenceable(24) %0, ptr noundef %1) #5 comdat align 2 personality ptr @__gxx_personality_v0 {
  %3 = alloca ptr, align 8
  %4 = alloca ptr, align 8
  %5 = alloca i64, align 8
  store ptr %0, ptr %3, align 8
  store ptr %1, ptr %4, align 8
  %6 = load ptr, ptr %3, align 8
  %7 = getelementptr inbounds nuw %"struct.std::_Vector_base.10", ptr %6, i32 0, i32 0
  %8 = getelementptr inbounds nuw %"struct.std::_Vector_base<char, std::allocator<char>>::_Vector_impl_data", ptr %7, i32 0, i32 1
  %9 = load ptr, ptr %8, align 8
  %10 = load ptr, ptr %4, align 8
  %11 = ptrtoint ptr %9 to i64
  %12 = ptrtoint ptr %10 to i64
  %13 = sub i64 %11, %12
  store i64 %13, ptr %5, align 8
  %14 = load i64, ptr %5, align 8
  %15 = icmp ne i64 %14, 0
  br i1 %15, label %16, label %26

16:                                               ; preds = %2
  %17 = load ptr, ptr %4, align 8
  %18 = getelementptr inbounds nuw %"struct.std::_Vector_base.10", ptr %6, i32 0, i32 0
  %19 = getelementptr inbounds nuw %"struct.std::_Vector_base<char, std::allocator<char>>::_Vector_impl_data", ptr %18, i32 0, i32 1
  %20 = load ptr, ptr %19, align 8
  %21 = call noundef nonnull align 1 dereferenceable(1) ptr @_ZNSt12_Vector_baseIcSaIcEE19_M_get_Tp_allocatorEv(ptr noundef nonnull align 8 dereferenceable(24) %6) #3
  invoke void @_ZSt8_DestroyIPccEvT_S1_RSaIT0_E(ptr noundef %17, ptr noundef %20, ptr noundef nonnull align 1 dereferenceable(1) %21)
          to label %22 unwind label %27

22:                                               ; preds = %16
  %23 = load ptr, ptr %4, align 8
  %24 = getelementptr inbounds nuw %"struct.std::_Vector_base.10", ptr %6, i32 0, i32 0
  %25 = getelementptr inbounds nuw %"struct.std::_Vector_base<char, std::allocator<char>>::_Vector_impl_data", ptr %24, i32 0, i32 1
  store ptr %23, ptr %25, align 8
  br label %26

26:                                               ; preds = %22, %2
  ret void

27:                                               ; preds = %16
  %28 = landingpad { ptr, i32 }
          catch ptr null
  %29 = extractvalue { ptr, i32 } %28, 0
  call void @__clang_call_terminate(ptr %29) #17
  unreachable
}

; Function Attrs: mustprogress nounwind uwtable
define linkonce_odr ptr @_ZNSt6vectorIcSaIcEE3endEv(ptr noundef nonnull align 8 dereferenceable(24) %0) #5 comdat align 2 {
  %2 = alloca %"class.__gnu_cxx::__normal_iterator.96", align 8
  %3 = alloca ptr, align 8
  store ptr %0, ptr %3, align 8
  %4 = load ptr, ptr %3, align 8
  %5 = getelementptr inbounds nuw %"struct.std::_Vector_base.10", ptr %4, i32 0, i32 0
  %6 = getelementptr inbounds nuw %"struct.std::_Vector_base<char, std::allocator<char>>::_Vector_impl_data", ptr %5, i32 0, i32 1
  call void @_ZN9__gnu_cxx17__normal_iteratorIPcSt6vectorIcSaIcEEEC2ERKS1_(ptr noundef nonnull align 8 dereferenceable(8) %2, ptr noundef nonnull align 8 dereferenceable(8) %6) #3
  %7 = getelementptr inbounds nuw %"class.__gnu_cxx::__normal_iterator.96", ptr %2, i32 0, i32 0
  %8 = load ptr, ptr %7, align 8
  ret ptr %8
}

; Function Attrs: mustprogress nounwind uwtable
define linkonce_odr noundef i64 @_ZNKSt6vectorIcSaIcEE4sizeEv(ptr noundef nonnull align 8 dereferenceable(24) %0) #5 comdat align 2 {
  %2 = alloca ptr, align 8
  store ptr %0, ptr %2, align 8
  %3 = load ptr, ptr %2, align 8
  %4 = getelementptr inbounds nuw %"struct.std::_Vector_base.10", ptr %3, i32 0, i32 0
  %5 = getelementptr inbounds nuw %"struct.std::_Vector_base<char, std::allocator<char>>::_Vector_impl_data", ptr %4, i32 0, i32 1
  %6 = load ptr, ptr %5, align 8
  %7 = getelementptr inbounds nuw %"struct.std::_Vector_base.10", ptr %3, i32 0, i32 0
  %8 = getelementptr inbounds nuw %"struct.std::_Vector_base<char, std::allocator<char>>::_Vector_impl_data", ptr %7, i32 0, i32 0
  %9 = load ptr, ptr %8, align 8
  %10 = ptrtoint ptr %6 to i64
  %11 = ptrtoint ptr %9 to i64
  %12 = sub i64 %10, %11
  ret i64 %12
}

; Function Attrs: mustprogress nounwind uwtable
define void @_ZN10open_spiel13markov_soccer17MarkovSoccerState8SetFieldEiic(ptr noundef nonnull align 8 dereferenceable(144) %0, i32 noundef %1, i32 noundef %2, i8 noundef signext %3) #5 align 2 {
  %5 = alloca ptr, align 8
  %6 = alloca i32, align 4
  %7 = alloca i32, align 4
  %8 = alloca i8, align 1
  store ptr %0, ptr %5, align 8
  store i32 %1, ptr %6, align 4
  store i32 %2, ptr %7, align 4
  store i8 %3, ptr %8, align 1
  %9 = load ptr, ptr %5, align 8
  %10 = load i8, ptr %8, align 1
  %11 = getelementptr inbounds nuw %"class.open_spiel::markov_soccer::MarkovSoccerState", ptr %9, i32 0, i32 11
  %12 = load i32, ptr %6, align 4
  %13 = getelementptr inbounds nuw %"class.open_spiel::markov_soccer::MarkovSoccerState", ptr %9, i32 0, i32 1
  %14 = load ptr, ptr %13, align 8
  %15 = getelementptr inbounds nuw %"struct.open_spiel::markov_soccer::Grid", ptr %14, i32 0, i32 1
  %16 = load i32, ptr %15, align 4
  %17 = mul nsw i32 %12, %16
  %18 = load i32, ptr %7, align 4
  %19 = add nsw i32 %17, %18
  %20 = sext i32 %19 to i64
  %21 = call noundef nonnull align 1 dereferenceable(1) ptr @_ZNSt6vectorIcSaIcEEixEm(ptr noundef nonnull align 8 dereferenceable(24) %11, i64 noundef %20) #3
  store i8 %10, ptr %21, align 1
  %22 = load i8, ptr %8, align 1
  %23 = sext i8 %22 to i32
  %24 = icmp eq i32 %23, 97
  br i1 %24, label %29, label %25

25:                                               ; preds = %4
  %26 = load i8, ptr %8, align 1
  %27 = sext i8 %26 to i32
  %28 = icmp eq i32 %27, 65
  br i1 %28, label %29, label %36

29:                                               ; preds = %25, %4
  %30 = load i32, ptr %6, align 4
  %31 = getelementptr inbounds nuw %"class.open_spiel::markov_soccer::MarkovSoccerState", ptr %9, i32 0, i32 6
  %32 = call noundef nonnull align 4 dereferenceable(4) ptr @_ZNSt5arrayIiLm2EEixEm(ptr noundef nonnull align 4 dereferenceable(8) %31, i64 noundef 0) #3
  store i32 %30, ptr %32, align 4
  %33 = load i32, ptr %7, align 4
  %34 = getelementptr inbounds nuw %"class.open_spiel::markov_soccer::MarkovSoccerState", ptr %9, i32 0, i32 7
  %35 = call noundef nonnull align 4 dereferenceable(4) ptr @_ZNSt5arrayIiLm2EEixEm(ptr noundef nonnull align 4 dereferenceable(8) %34, i64 noundef 0) #3
  store i32 %33, ptr %35, align 4
  br label %52

36:                                               ; preds = %25
  %37 = load i8, ptr %8, align 1
  %38 = sext i8 %37 to i32
  %39 = icmp eq i32 %38, 98
  br i1 %39, label %44, label %40

40:                                               ; preds = %36
  %41 = load i8, ptr %8, align 1
  %42 = sext i8 %41 to i32
  %43 = icmp eq i32 %42, 66
  br i1 %43, label %44, label %51

44:                                               ; preds = %40, %36
  %45 = load i32, ptr %6, align 4
  %46 = getelementptr inbounds nuw %"class.open_spiel::markov_soccer::MarkovSoccerState", ptr %9, i32 0, i32 6
  %47 = call noundef nonnull align 4 dereferenceable(4) ptr @_ZNSt5arrayIiLm2EEixEm(ptr noundef nonnull align 4 dereferenceable(8) %46, i64 noundef 1) #3
  store i32 %45, ptr %47, align 4
  %48 = load i32, ptr %7, align 4
  %49 = getelementptr inbounds nuw %"class.open_spiel::markov_soccer::MarkovSoccerState", ptr %9, i32 0, i32 7
  %50 = call noundef nonnull align 4 dereferenceable(4) ptr @_ZNSt5arrayIiLm2EEixEm(ptr noundef nonnull align 4 dereferenceable(8) %49, i64 noundef 1) #3
  store i32 %48, ptr %50, align 4
  br label %51

51:                                               ; preds = %44, %40
  br label %52

52:                                               ; preds = %51, %29
  %53 = load i8, ptr %8, align 1
  %54 = sext i8 %53 to i32
  %55 = icmp eq i32 %54, 79
  br i1 %55, label %64, label %56

56:                                               ; preds = %52
  %57 = load i8, ptr %8, align 1
  %58 = sext i8 %57 to i32
  %59 = icmp eq i32 %58, 65
  br i1 %59, label %64, label %60

60:                                               ; preds = %56
  %61 = load i8, ptr %8, align 1
  %62 = sext i8 %61 to i32
  %63 = icmp eq i32 %62, 66
  br i1 %63, label %64, label %69

64:                                               ; preds = %60, %56, %52
  %65 = load i32, ptr %6, align 4
  %66 = getelementptr inbounds nuw %"class.open_spiel::markov_soccer::MarkovSoccerState", ptr %9, i32 0, i32 8
  store i32 %65, ptr %66, align 8
  %67 = load i32, ptr %7, align 4
  %68 = getelementptr inbounds nuw %"class.open_spiel::markov_soccer::MarkovSoccerState", ptr %9, i32 0, i32 9
  store i32 %67, ptr %68, align 4
  br label %69

69:                                               ; preds = %64, %60
  ret void
}

; Function Attrs: mustprogress uwtable
define linkonce_odr void @_ZNSt6vectorIcSaIcEE6resizeEmRKc(ptr noundef nonnull align 8 dereferenceable(24) %0, i64 noundef %1, ptr noundef nonnull align 1 dereferenceable(1) %2) #4 comdat align 2 {
  %4 = alloca ptr, align 8
  %5 = alloca i64, align 8
  %6 = alloca ptr, align 8
  %7 = alloca %"class.__gnu_cxx::__normal_iterator.96", align 8
  store ptr %0, ptr %4, align 8
  store i64 %1, ptr %5, align 8
  store ptr %2, ptr %6, align 8
  %8 = load ptr, ptr %4, align 8
  %9 = load i64, ptr %5, align 8
  %10 = call noundef i64 @_ZNKSt6vectorIcSaIcEE4sizeEv(ptr noundef nonnull align 8 dereferenceable(24) %8) #3
  %11 = icmp ugt i64 %9, %10
  br i1 %11, label %12, label %21

12:                                               ; preds = %3
  %13 = call ptr @_ZNSt6vectorIcSaIcEE3endEv(ptr noundef nonnull align 8 dereferenceable(24) %8) #3
  %14 = getelementptr inbounds nuw %"class.__gnu_cxx::__normal_iterator.96", ptr %7, i32 0, i32 0
  store ptr %13, ptr %14, align 8
  %15 = load i64, ptr %5, align 8
  %16 = call noundef i64 @_ZNKSt6vectorIcSaIcEE4sizeEv(ptr noundef nonnull align 8 dereferenceable(24) %8) #3
  %17 = sub i64 %15, %16
  %18 = load ptr, ptr %6, align 8
  %19 = getelementptr inbounds nuw %"class.__gnu_cxx::__normal_iterator.96", ptr %7, i32 0, i32 0
  %20 = load ptr, ptr %19, align 8
  call void @_ZNSt6vectorIcSaIcEE14_M_fill_insertEN9__gnu_cxx17__normal_iteratorIPcS1_EEmRKc(ptr noundef nonnull align 8 dereferenceable(24) %8, ptr %20, i64 noundef %17, ptr noundef nonnull align 1 dereferenceable(1) %18)
  br label %32

21:                                               ; preds = %3
  %22 = load i64, ptr %5, align 8
  %23 = call noundef i64 @_ZNKSt6vectorIcSaIcEE4sizeEv(ptr noundef nonnull align 8 dereferenceable(24) %8) #3
  %24 = icmp ult i64 %22, %23
  br i1 %24, label %25, label %31

25:                                               ; preds = %21
  %26 = getelementptr inbounds nuw %"struct.std::_Vector_base.10", ptr %8, i32 0, i32 0
  %27 = getelementptr inbounds nuw %"struct.std::_Vector_base<char, std::allocator<char>>::_Vector_impl_data", ptr %26, i32 0, i32 0
  %28 = load ptr, ptr %27, align 8
  %29 = load i64, ptr %5, align 8
  %30 = getelementptr inbounds i8, ptr %28, i64 %29
  call void @_ZNSt6vectorIcSaIcEE15_M_erase_at_endEPc(ptr noundef nonnull align 8 dereferenceable(24) %8, ptr noundef %30) #3
  br label %31

31:                                               ; preds = %25, %21
  br label %32

32:                                               ; preds = %31, %12
  ret void
}

; Function Attrs: mustprogress uwtable
define void @_ZN10open_spiel13markov_soccer17MarkovSoccerState5ResetEi(ptr noundef nonnull align 8 dereferenceable(144) %0, i32 noundef %1) #4 align 2 {
  %3 = alloca ptr, align 8
  %4 = alloca i32, align 4
  %5 = alloca i8, align 1
  store ptr %0, ptr %3, align 8
  store i32 %1, ptr %4, align 4
  %6 = load ptr, ptr %3, align 8
  %7 = load i32, ptr %4, align 4
  %8 = getelementptr inbounds nuw %"class.open_spiel::markov_soccer::MarkovSoccerState", ptr %6, i32 0, i32 5
  store i32 %7, ptr %8, align 4
  %9 = getelementptr inbounds nuw %"class.open_spiel::markov_soccer::MarkovSoccerState", ptr %6, i32 0, i32 11
  %10 = getelementptr inbounds nuw %"class.open_spiel::markov_soccer::MarkovSoccerState", ptr %6, i32 0, i32 1
  %11 = load ptr, ptr %10, align 8
  %12 = getelementptr inbounds nuw %"struct.open_spiel::markov_soccer::Grid", ptr %11, i32 0, i32 0
  %13 = load i32, ptr %12, align 8
  %14 = getelementptr inbounds nuw %"class.open_spiel::markov_soccer::MarkovSoccerState", ptr %6, i32 0, i32 1
  %15 = load ptr, ptr %14, align 8
  %16 = getelementptr inbounds nuw %"struct.open_spiel::markov_soccer::Grid", ptr %15, i32 0, i32 1
  %17 = load i32, ptr %16, align 4
  %18 = mul nsw i32 %13, %17
  %19 = sext i32 %18 to i64
  store i8 46, ptr %5, align 1
  call void @_ZNSt6vectorIcSaIcEE6resizeEmRKc(ptr noundef nonnull align 8 dereferenceable(24) %9, i64 noundef %19, ptr noundef nonnull align 1 dereferenceable(1) %5)
  %20 = getelementptr inbounds nuw %"class.open_spiel::markov_soccer::MarkovSoccerState", ptr %6, i32 0, i32 1
  %21 = load ptr, ptr %20, align 8
  %22 = getelementptr inbounds nuw %"struct.open_spiel::markov_soccer::Grid", ptr %21, i32 0, i32 2
  %23 = getelementptr inbounds nuw %"struct.std::pair.11", ptr %22, i32 0, i32 0
  %24 = load i32, ptr %23, align 8
  %25 = getelementptr inbounds nuw %"class.open_spiel::markov_soccer::MarkovSoccerState", ptr %6, i32 0, i32 1
  %26 = load ptr, ptr %25, align 8
  %27 = getelementptr inbounds nuw %"struct.open_spiel::markov_soccer::Grid", ptr %26, i32 0, i32 2
  %28 = getelementptr inbounds nuw %"struct.std::pair.11", ptr %27, i32 0, i32 1
  %29 = load i32, ptr %28, align 4
  call void @_ZN10open_spiel13markov_soccer17MarkovSoccerState8SetFieldEiic(ptr noundef nonnull align 8 dereferenceable(144) %6, i32 noundef %24, i32 noundef %29, i8 noundef signext 97)
  %30 = getelementptr inbounds nuw %"class.open_spiel::markov_soccer::MarkovSoccerState", ptr %6, i32 0, i32 1
  %31 = load ptr, ptr %30, align 8
  %32 = getelementptr inbounds nuw %"struct.open_spiel::markov_soccer::Grid", ptr %31, i32 0, i32 3
  %33 = getelementptr inbounds nuw %"struct.std::pair.11", ptr %32, i32 0, i32 0
  %34 = load i32, ptr %33, align 8
  %35 = getelementptr inbounds nuw %"class.open_spiel::markov_soccer::MarkovSoccerState", ptr %6, i32 0, i32 1
  %36 = load ptr, ptr %35, align 8
  %37 = getelementptr inbounds nuw %"struct.open_spiel::markov_soccer::Grid", ptr %36, i32 0, i32 3
  %38 = getelementptr inbounds nuw %"struct.std::pair.11", ptr %37, i32 0, i32 1
  %39 = load i32, ptr %38, align 4
  call void @_ZN10open_spiel13markov_soccer17MarkovSoccerState8SetFieldEiic(ptr noundef nonnull align 8 dereferenceable(144) %6, i32 noundef %34, i32 noundef %39, i8 noundef signext 98)
  %40 = getelementptr inbounds nuw %"class.open_spiel::markov_soccer::MarkovSoccerState", ptr %6, i32 0, i32 3
  store i32 -1, ptr %40, align 4
  %41 = getelementptr inbounds nuw %"class.open_spiel::markov_soccer::MarkovSoccerState", ptr %6, i32 0, i32 2
  store i32 -3, ptr %41, align 8
  %42 = getelementptr inbounds nuw %"class.open_spiel::markov_soccer::MarkovSoccerState", ptr %6, i32 0, i32 4
  store i32 0, ptr %42, align 8
  ret void
}