; Function Attrs: mustprogress uwtable
define void @_ZN10open_spiel13markov_soccer17MarkovSoccerState5ResetEi(ptr noundef nonnull align 8 dereferenceable(144) %0, i32 noundef %1) local_unnamed_addr #3 align 2 personality ptr @__gxx_personality_v0 {
  %3 = alloca i8, align 1
  %4 = getelementptr inbounds nuw i8, ptr %0, i64 84
  store i32 %1, ptr %4, align 4
  %5 = getelementptr inbounds nuw i8, ptr %0, i64 120
  %6 = getelementptr inbounds nuw i8, ptr %0, i64 64
  %7 = load ptr, ptr %6, align 8
  %8 = load i32, ptr %7, align 8
  %9 = getelementptr inbounds nuw i8, ptr %7, i64 4
  %10 = load i32, ptr %9, align 4
  %11 = mul nsw i32 %10, %8
  %12 = sext i32 %11 to i64
  store i8 46, ptr %3, align 1
  %13 = getelementptr inbounds i8, ptr %0, i64 128
  %14 = load ptr, ptr %13, align 8
  %15 = load ptr, ptr %5, align 8
  %16 = ptrtoint ptr %14 to i64
  %17 = ptrtoint ptr %15 to i64
  %18 = sub i64 %16, %17
  %19 = icmp ult i64 %18, %12
  br i1 %19, label %20, label %22

20:                                               ; preds = %2
  %21 = sub nuw i64 %12, %18
  call void @_ZNSt6vectorIcSaIcEE14_M_fill_insertEN9__gnu_cxx17__normal_iteratorIPcS1_EEmRKc(ptr noundef nonnull align 8 dereferenceable(24) %5, ptr %14, i64 noundef %21, ptr noundef nonnull align 1 dereferenceable(1) %3)
  %.pre = load ptr, ptr %6, align 8
  %.pre1 = load ptr, ptr %5, align 8
  br label %_ZNSt6vectorIcSaIcEE6resizeEmRKc.exit

22:                                               ; preds = %2
  %23 = icmp ugt i64 %18, %12
  br i1 %23, label %24, label %_ZNSt6vectorIcSaIcEE6resizeEmRKc.exit

24:                                               ; preds = %22
  %25 = getelementptr inbounds i8, ptr %15, i64 %12
  %.not.i.i = icmp eq ptr %14, %25
  br i1 %.not.i.i, label %_ZNSt6vectorIcSaIcEE6resizeEmRKc.exit, label %26

26:                                               ; preds = %24
  store ptr %25, ptr %13, align 8
  br label %_ZNSt6vectorIcSaIcEE6resizeEmRKc.exit

_ZNSt6vectorIcSaIcEE6resizeEmRKc.exit:            ; preds = %20, %22, %24, %26
  %27 = phi ptr [ %.pre1, %20 ], [ %15, %22 ], [ %15, %24 ], [ %15, %26 ]
  %28 = phi ptr [ %.pre, %20 ], [ %7, %22 ], [ %7, %24 ], [ %7, %26 ]
  %29 = getelementptr inbounds nuw i8, ptr %28, i64 8
  %30 = load i32, ptr %29, align 8
  %31 = getelementptr inbounds i8, ptr %28, i64 12
  %32 = load i32, ptr %31, align 4
  %33 = getelementptr inbounds nuw i8, ptr %28, i64 4
  %34 = load i32, ptr %33, align 4
  %35 = mul nsw i32 %34, %30
  %36 = add nsw i32 %35, %32
  %37 = sext i32 %36 to i64
  %38 = getelementptr inbounds i8, ptr %27, i64 %37
  store i8 97, ptr %38, align 1
  %39 = getelementptr inbounds i8, ptr %0, i64 88
  store i32 %30, ptr %39, align 8
  %40 = getelementptr inbounds i8, ptr %0, i64 96
  store i32 %32, ptr %40, align 8
  %41 = load ptr, ptr %6, align 8
  %42 = getelementptr inbounds nuw i8, ptr %41, i64 16
  %43 = load i32, ptr %42, align 8
  %44 = getelementptr inbounds i8, ptr %41, i64 20
  %45 = load i32, ptr %44, align 4
  %46 = getelementptr inbounds nuw i8, ptr %41, i64 4
  %47 = load i32, ptr %46, align 4
  %48 = mul nsw i32 %47, %43
  %49 = add nsw i32 %48, %45
  %50 = sext i32 %49 to i64
  %51 = load ptr, ptr %5, align 8
  %52 = getelementptr inbounds i8, ptr %51, i64 %50
  store i8 98, ptr %52, align 1
  %53 = getelementptr inbounds i8, ptr %0, i64 92
  store i32 %43, ptr %53, align 4
  %54 = getelementptr inbounds i8, ptr %0, i64 100
  store i32 %45, ptr %54, align 4
  %55 = getelementptr inbounds nuw i8, ptr %0, i64 76
  store i32 -1, ptr %55, align 4
  %56 = getelementptr inbounds nuw i8, ptr %0, i64 72
  store i32 -3, ptr %56, align 8
  %57 = getelementptr inbounds nuw i8, ptr %0, i64 80
  store i32 0, ptr %57, align 8
  ret void
}